; Function Attrs: mustprogress nofree norecurse nosync nounwind willreturn memory(argmem: read) uwtable
define internal noundef i32 @_ZNK5faiss12_GLOBAL__N_118IVFBinaryScannerL2INS_17HammingComputer20EE16distance_to_codeEPKh(ptr nocapture noundef nonnull readonly align 8 dereferenceable(56) %0, ptr nocapture noundef readonly %1) unnamed_addr #14 align 2 {
  %3 = getelementptr inbounds i8, ptr %0, i64 8
  %4 = load <2 x i64>, ptr %1, align 8
  %5 = load <2 x i64>, ptr %3, align 8
  %6 = xor <2 x i64> %5, %4
  %7 = tail call <2 x i64> @llvm.ctpop.v2i64(<2 x i64> %6), !range !210
  %8 = trunc <2 x i64> %7 to <2 x i32>
  %shift = shufflevector <2 x i32> %8, <2 x i32> poison, <2 x i32> <i32 1, i32 poison>
  %9 = add nuw nsw <2 x i32> %shift, %8
  %10 = extractelement <2 x i32> %9, i64 0
  %11 = getelementptr inbounds i8, ptr %1, i64 16
  %12 = load i32, ptr %11, align 4
  %13 = getelementptr inbounds i8, ptr %0, i64 24
  %14 = load i32, ptr %13, align 8
  %15 = xor i32 %14, %12
  %16 = tail call i32 @llvm.ctpop.i32(i32 %15), !range !206
  %17 = add nuw nsw i32 %10, %16
  ret i32 %17
}